target datalayout = "e-m:e-p270:32:32-p271:32:32-p272:64:64-i64:64-i128:128-f80:128-n8:16:32:64-S128"
target triple = "x86_64-pc-linux-gnu"

%struct.Channel = type { i32, i32, [4 x i32], %struct.QMFAnalysis, [4 x %struct.Quantize], [4 x %struct.InvertQuantize], [4 x %struct.Prediction] }
%struct.QMFAnalysis = type { [2 x %struct.FilterSignal], [2 x [2 x %struct.FilterSignal]] }
%struct.FilterSignal = type { i32, [32 x i32] }
%struct.Quantize = type { i32, i32, i32 }
%struct.InvertQuantize = type { i32, i32, i32 }
%struct.Prediction = type { [2 x i32], [2 x i32], [24 x i32], i32, [48 x i32], i32, i32, i32 }
%struct.AVCodecContext = type { ptr, i32, i32, ptr, i32, i32, ptr, ptr, ptr, i64, i32, i32, ptr, i32, %struct.AVRational, %struct.AVRational, %struct.AVRational, i32, i32, i32, i32, i32, %struct.AVRational, i32, i32, i32, i32, i32, i32, i32, i32, i32, i32, i32, ptr, ptr, i32, float, float, float, float, float, float, float, float, float, i32, i32, i32, i32, i32, i32, i32, i32, i32, i32, i32, i32, ptr, ptr, ptr, i32, i32, i32, i32, i32, i32, i32, i32, i32, i32, %struct.AVChannelLayout, i32, i32, i32, i32, i32, i32, i32, i32, ptr, i32, i32, i32, float, float, i32, i32, i32, i32, i32, ptr, i64, i64, float, float, i32, i32, ptr, ptr, i32, i32, i32, i32, i32, ptr, ptr, ptr, ptr, i32, i32, [8 x i64], i32, i32, i32, i32, i32, i32, i32, ptr, ptr, i32, i32, i32, i32, i32, i32, i32, i32, i32, i32, ptr, ptr, i32, i32, ptr, ptr, ptr, ptr, i32, i32, i64, i32, i32, i64, ptr, i64, ptr, i32, ptr, i32 }
%struct.AVRational = type { i32, i32 }
%struct.AVChannelLayout = type { i32, i32, %union.anon, ptr }
%union.anon = type { i64 }
%struct.AVCodec = type { ptr, ptr, i32, i32, i32, i8, ptr, ptr, ptr, ptr, ptr, ptr, ptr, ptr }
%struct.AptXContext = type { i32, i32, i32, [2 x %struct.Channel] }

; Function Attrs: cold nounwind optsize uwtable
define i32 @ff_aptx_init(ptr noundef %0) #3 {
  %2 = alloca i32, align 4
  %3 = alloca ptr, align 8
  %4 = alloca ptr, align 8
  %5 = alloca i32, align 4
  %6 = alloca i32, align 4
  %7 = alloca i32, align 4
  %8 = alloca ptr, align 8
  %9 = alloca ptr, align 8
  store ptr %0, ptr %3, align 8, !tbaa !28
  call void @llvm.lifetime.start.p0(i64 8, ptr %4) #5
  %10 = load ptr, ptr %3, align 8, !tbaa !28
  %11 = getelementptr inbounds nuw %struct.AVCodecContext, ptr %10, i32 0, i32 6
  %12 = load ptr, ptr %11, align 8, !tbaa !30
  store ptr %12, ptr %4, align 8, !tbaa !4
  call void @llvm.lifetime.start.p0(i64 4, ptr %5) #5
  call void @llvm.lifetime.start.p0(i64 4, ptr %6) #5
  %13 = load ptr, ptr %3, align 8, !tbaa !28
  %14 = getelementptr inbounds nuw %struct.AVCodecContext, ptr %13, i32 0, i32 71
  %15 = getelementptr inbounds nuw %struct.AVChannelLayout, ptr %14, i32 0, i32 1
  %16 = load i32, ptr %15, align 4, !tbaa !46
  %17 = icmp ne i32 %16, 2
  br i1 %17, label %18, label %19

18:                                               ; preds = %1
  store i32 -1094995529, ptr %2, align 4
  store i32 1, ptr %7, align 4
  br label %68

19:                                               ; preds = %1
  %20 = load ptr, ptr %3, align 8, !tbaa !28
  %21 = getelementptr inbounds nuw %struct.AVCodecContext, ptr %20, i32 0, i32 3
  %22 = load ptr, ptr %21, align 8, !tbaa !47
  %23 = getelementptr inbounds nuw %struct.AVCodec, ptr %22, i32 0, i32 3
  %24 = load i32, ptr %23, align 4, !tbaa !48
  %25 = icmp eq i32 %24, 86102
  %26 = zext i1 %25 to i32
  %27 = load ptr, ptr %4, align 8, !tbaa !4
  %28 = getelementptr inbounds nuw %struct.AptXContext, ptr %27, i32 0, i32 0
  store i32 %26, ptr %28, align 4, !tbaa !53
  %29 = load ptr, ptr %4, align 8, !tbaa !4
  %30 = getelementptr inbounds nuw %struct.AptXContext, ptr %29, i32 0, i32 0
  %31 = load i32, ptr %30, align 4, !tbaa !53
  %32 = icmp ne i32 %31, 0
  %33 = select i1 %32, i32 6, i32 4
  %34 = load ptr, ptr %4, align 8, !tbaa !4
  %35 = getelementptr inbounds nuw %struct.AptXContext, ptr %34, i32 0, i32 1
  store i32 %33, ptr %35, align 4, !tbaa !55
  store i32 0, ptr %5, align 4, !tbaa !14
  br label %36

36:                                               ; preds = %64, %19
  %37 = load i32, ptr %5, align 4, !tbaa !14
  %38 = icmp slt i32 %37, 2
  br i1 %38, label %39, label %67

39:                                               ; preds = %36
  call void @llvm.lifetime.start.p0(i64 8, ptr %8) #5
  %40 = load ptr, ptr %4, align 8, !tbaa !4
  %41 = getelementptr inbounds nuw %struct.AptXContext, ptr %40, i32 0, i32 3
  %42 = load i32, ptr %5, align 4, !tbaa !14
  %43 = sext i32 %42 to i64
  %44 = getelementptr inbounds [2 x %struct.Channel], ptr %41, i64 0, i64 %43
  store ptr %44, ptr %8, align 8, !tbaa !4
  store i32 0, ptr %6, align 4, !tbaa !14
  br label %45

45:                                               ; preds = %60, %39
  %46 = load i32, ptr %6, align 4, !tbaa !14
  %47 = icmp slt i32 %46, 4
  br i1 %47, label %48, label %63

48:                                               ; preds = %45
  call void @llvm.lifetime.start.p0(i64 8, ptr %9) #5
  %49 = load ptr, ptr %8, align 8, !tbaa !4
  %50 = getelementptr inbounds nuw %struct.Channel, ptr %49, i32 0, i32 6
  %51 = load i32, ptr %6, align 4, !tbaa !14
  %52 = sext i32 %51 to i64
  %53 = getelementptr inbounds [4 x %struct.Prediction], ptr %50, i64 0, i64 %52
  store ptr %53, ptr %9, align 8, !tbaa !4
  %54 = load ptr, ptr %9, align 8, !tbaa !4
  %55 = getelementptr inbounds nuw %struct.Prediction, ptr %54, i32 0, i32 0
  %56 = getelementptr inbounds [2 x i32], ptr %55, i64 0, i64 0
  store i32 1, ptr %56, align 4, !tbaa !14
  %57 = load ptr, ptr %9, align 8, !tbaa !4
  %58 = getelementptr inbounds nuw %struct.Prediction, ptr %57, i32 0, i32 0
  %59 = getelementptr inbounds [2 x i32], ptr %58, i64 0, i64 1
  store i32 1, ptr %59, align 4, !tbaa !14
  call void @llvm.lifetime.end.p0(i64 8, ptr %9) #5
  br label %60

60:                                               ; preds = %48
  %61 = load i32, ptr %6, align 4, !tbaa !14
  %62 = add nsw i32 %61, 1
  store i32 %62, ptr %6, align 4, !tbaa !14
  br label %45, !llvm.loop !56

63:                                               ; preds = %45
  call void @llvm.lifetime.end.p0(i64 8, ptr %8) #5
  br label %64

64:                                               ; preds = %63
  %65 = load i32, ptr %5, align 4, !tbaa !14
  %66 = add nsw i32 %65, 1
  store i32 %66, ptr %5, align 4, !tbaa !14
  br label %36, !llvm.loop !57

67:                                               ; preds = %36
  store i32 0, ptr %2, align 4
  store i32 1, ptr %7, align 4
  br label %68

68:                                               ; preds = %67, %18
  call void @llvm.lifetime.end.p0(i64 4, ptr %6) #5
  call void @llvm.lifetime.end.p0(i64 4, ptr %5) #5
  call void @llvm.lifetime.end.p0(i64 8, ptr %4) #5
  %69 = load i32, ptr %2, align 4
  ret i32 %69
}