; Function Attrs: cold nofree norecurse nosync nounwind optsize memory(readwrite, inaccessiblemem: none) uwtable
define range(i32 -1094995529, 1) i32 @ff_aptx_init(ptr noundef readonly captures(none) %0) local_unnamed_addr #2 {
  %2 = getelementptr inbounds nuw i8, ptr %0, i64 356
  %3 = load i32, ptr %2, align 4, !tbaa !36
  %.not = icmp eq i32 %3, 2
  br i1 %.not, label %4, label %.loopexit

4:                                                ; preds = %1
  %5 = getelementptr inbounds nuw i8, ptr %0, i64 32
  %6 = load ptr, ptr %5, align 8, !tbaa !53
  %7 = getelementptr inbounds nuw i8, ptr %0, i64 16
  %8 = load ptr, ptr %7, align 8, !tbaa !54
  %9 = getelementptr inbounds nuw i8, ptr %8, i64 20
  %10 = load i32, ptr %9, align 4, !tbaa !55
  %11 = icmp eq i32 %10, 86102
  %12 = zext i1 %11 to i32
  store i32 %12, ptr %6, align 4, !tbaa !60
  %13 = select i1 %11, i32 6, i32 4
  %14 = getelementptr inbounds nuw i8, ptr %6, i64 4
  store i32 %13, ptr %14, align 4, !tbaa !62
  %invariant.gep = getelementptr inbounds nuw i8, ptr %6, i64 924
  br label %15

15:                                               ; preds = %4, %20
  %16 = phi i1 [ true, %4 ], [ false, %20 ]
  %indvars.iv22 = phi i64 [ 0, %4 ], [ 2192, %20 ]
  %gep = getelementptr inbounds nuw i8, ptr %invariant.gep, i64 %indvars.iv22
  br label %17

17:                                               ; preds = %15, %17
  %indvars.iv = phi i64 [ 0, %15 ], [ %indvars.iv.next, %17 ]
  %18 = getelementptr inbounds nuw [4 x %struct.Prediction], ptr %gep, i64 0, i64 %indvars.iv
  store i32 1, ptr %18, align 4, !tbaa !12
  %19 = getelementptr inbounds nuw i8, ptr %18, i64 4
  store i32 1, ptr %19, align 4, !tbaa !12
  %indvars.iv.next = add nuw nsw i64 %indvars.iv, 1
  %exitcond.not = icmp eq i64 %indvars.iv.next, 4
  br i1 %exitcond.not, label %20, label %17, !llvm.loop !63

20:                                               ; preds = %17
  br i1 %16, label %15, label %.loopexit, !llvm.loop !64

.loopexit:                                        ; preds = %20, %1
  %.0 = phi i32 [ -1094995529, %1 ], [ 0, %20 ]
  ret i32 %.0
}